target datalayout = "e-m:e-p270:32:32-p271:32:32-p272:64:64-i64:64-i128:128-f80:128-n8:16:32:64-S128"
target triple = "x86_64-unknown-linux-gnu"

%struct.VMStateDescription = type { ptr, i8, i8, i32, i32, i32, ptr, ptr, ptr, ptr, ptr, ptr, ptr, ptr }
%struct.MemoryRegion = type { %struct.Object, i8, i8, i8, i8, i8, i8, i8, i8, i8, i8, ptr, ptr, ptr, ptr, ptr, ptr, i32, i128, i64, ptr, i64, i8, i8, i8, i8, i8, ptr, i64, i32, %union.anon, %union.anon.0, %union.anon.1, ptr, i32, ptr, ptr, i8 }
%struct.Object = type { ptr, ptr, ptr, i32, ptr }
%union.anon = type { %struct.QTailQLink }
%struct.QTailQLink = type { ptr, ptr }
%union.anon.0 = type { %struct.QTailQLink }
%union.anon.1 = type { %struct.QTailQLink }
%struct.VFIOPCIDevice = type { %struct.PCIDevice, %struct.VFIODevice, %struct.VFIOINTx, i32, ptr, i64, i32, i64, ptr, i32, ptr, ptr, i32, i32, [6 x %struct.VFIOBAR], ptr, ptr, %struct.PCIHostDeviceAddress, %struct.QemuUUID, %struct.EventNotifier, %struct.EventNotifier, ptr, i32, i32, i32, i32, i32, i32, i32, i32, i32, i32, i32, i8, i8, i8, i8, i8, i8, i8, i8, i8, i8, i8, i8, i8, i8, i32, i8, i8, ptr, %struct.Notifier }
%struct.PCIDevice = type { %struct.DeviceState, i8, i8, ptr, ptr, ptr, ptr, ptr, i32, %struct.PCIReqIDCache, [64 x i8], [7 x %struct.PCIIORegion], %struct.AddressSpace, %struct.MemoryRegion, %struct.MemoryRegion, ptr, ptr, [3 x ptr], i8, i8, i32, i8, i32, ptr, ptr, ptr, ptr, ptr, ptr, %struct.MemoryRegion, %struct.MemoryRegion, %struct.MemoryRegion, ptr, i8, i32, i8, %struct.PCIExpressDevice, ptr, ptr, i32, i8, %struct.MemoryRegion, i32, ptr, ptr, ptr, ptr, ptr, i32 }
%struct.DeviceState = type { %struct.Object, ptr, ptr, i8, i8, i64, ptr, i32, i8, ptr, %struct.NamedGPIOListHead, %struct.NamedClockListHead, %struct.BusStateHead, i32, i32, i32, %struct.ResettableState, ptr, %struct.MemReentrancyGuard }
%struct.NamedGPIOListHead = type { ptr }
%struct.NamedClockListHead = type { ptr }
%struct.BusStateHead = type { ptr }
%struct.ResettableState = type { i32, i8, i8 }
%struct.MemReentrancyGuard = type { i8 }
%struct.PCIReqIDCache = type { ptr, i32 }
%struct.PCIIORegion = type { i64, i64, i8, ptr, ptr }
%struct.AddressSpace = type { %struct.rcu_head, ptr, ptr, ptr, i32, i32, ptr, %union.anon.4, %union.anon.5 }
%struct.rcu_head = type { ptr, ptr }
%union.anon.4 = type { %struct.QTailQLink }
%union.anon.5 = type { %struct.QTailQLink }
%struct.PCIExpressDevice = type { i8, i8, i8, i16, %struct.PCIEAERLog, i16, i16, i16, %struct.PCIESriovPF, %struct.PCIESriovVF }
%struct.PCIEAERLog = type { i16, i16, ptr }
%struct.PCIESriovPF = type { i16, [7 x i8], ptr, ptr }
%struct.PCIESriovVF = type { ptr, i16 }
%struct.VFIODevice = type { %struct.anon.6, %struct.anon.7, %struct.anon.8, ptr, ptr, ptr, ptr, ptr, i32, i32, i8, i8, i8, i8, i32, ptr, i32, i32, i32, ptr, ptr, i32, i8, i8 }
%struct.anon.6 = type { ptr, ptr }
%struct.anon.7 = type { ptr, ptr }
%struct.anon.8 = type { ptr, ptr }
%struct.VFIOINTx = type { i8, i8, i8, %struct.EventNotifier, %struct.EventNotifier, %struct.PCIINTxRoute, i32, ptr }
%struct.PCIINTxRoute = type { i32, i32 }
%struct.VFIOBAR = type { %struct.VFIORegion, ptr, i64, i8, i8, i8, %struct.anon.9 }
%struct.VFIORegion = type { ptr, i64, ptr, i64, i32, i32, ptr, i8 }
%struct.anon.9 = type { ptr }
%struct.PCIHostDeviceAddress = type { i32, i32, i32, i32 }
%struct.QemuUUID = type { %union.anon.10 }
%union.anon.10 = type { %struct.anon.11 }
%struct.anon.11 = type { i32, i16, i16, i8, i8, [6 x i8] }
%struct.EventNotifier = type { i32, i32, i8 }
%struct.Notifier = type { ptr, %struct.anon.12 }
%struct.anon.12 = type { ptr, ptr }

@vmstate_vfio_pci_config = dso_local constant %struct.VMStateDescription { ptr @.str.8, i8 0, i8 0, i32 1, i32 1, i32 0, ptr null, ptr null, ptr null, ptr null, ptr null, ptr null, ptr @.compoundliteral.10, ptr @.compoundliteral.11 }, align 8

; Function Attrs: nounwind sspstrong uwtable
define internal i32 @lduw_he_p(ptr noundef %ptr) #0 {
entry:
  %ptr.addr = alloca ptr, align 8
  %r = alloca i16, align 2
  store ptr %ptr, ptr %ptr.addr, align 8
  %0 = load ptr, ptr %ptr.addr, align 8
  call void @llvm.memcpy.p0.p0.i64(ptr align 2 %r, ptr align 1 %0, i64 2, i1 false)
  %1 = load i16, ptr %r, align 2
  %conv = zext i16 %1 to i32
  ret i32 %conv
}

; Function Attrs: nounwind sspstrong uwtable
define internal i32 @lduw_le_p(ptr noundef %ptr) #0 {
entry:
  %ptr.addr = alloca ptr, align 8
  store ptr %ptr, ptr %ptr.addr, align 8
  %0 = load ptr, ptr %ptr.addr, align 8
  %call = call i32 @lduw_he_p(ptr noundef %0)
  %conv = trunc i32 %call to i16
  %conv1 = zext i16 %conv to i32
  ret i32 %conv1
}

; Function Attrs: nounwind sspstrong uwtable
define internal i64 @qemu_real_host_page_size() #0 {
entry:
  %call = call i32 @getpagesize() #14
  %conv = sext i32 %call to i64
  ret i64 %conv
}

; Function Attrs: nounwind sspstrong uwtable
define internal zeroext i16 @pci_get_word(ptr noundef %config) #0 {
entry:
  %config.addr = alloca ptr, align 8
  store ptr %config, ptr %config.addr, align 8
  %0 = load ptr, ptr %config.addr, align 8
  %call = call i32 @lduw_le_p(ptr noundef %0)
  %conv = trunc i32 %call to i16
  ret i16 %conv
}

; Function Attrs: nounwind sspstrong uwtable
define internal i32 @vfio_pci_load_config(ptr noundef %vbasedev, ptr noundef %f) #0 {
entry:
  %retval = alloca i32, align 4
  %vbasedev.addr = alloca ptr, align 8
  %f.addr = alloca ptr, align 8
  %vdev = alloca ptr, align 8
  %__mptr = alloca ptr, align 8
  %tmp = alloca ptr, align 8
  %pdev = alloca ptr, align 8
  %old_addr = alloca [6 x i64], align 16
  %bar = alloca i32, align 4
  %ret = alloca i32, align 4
  store ptr %vbasedev, ptr %vbasedev.addr, align 8
  store ptr %f, ptr %f.addr, align 8
  %0 = load ptr, ptr %vbasedev.addr, align 8
  store ptr %0, ptr %__mptr, align 8
  %1 = load ptr, ptr %__mptr, align 8
  %add.ptr = getelementptr i8, ptr %1, i64 -2608
  store ptr %add.ptr, ptr %tmp, align 8
  %2 = load ptr, ptr %tmp, align 8
  store ptr %2, ptr %vdev, align 8
  %3 = load ptr, ptr %vdev, align 8
  %pdev1 = getelementptr inbounds %struct.VFIOPCIDevice, ptr %3, i32 0, i32 0
  store ptr %pdev1, ptr %pdev, align 8
  store i32 0, ptr %bar, align 4
  br label %for.cond

for.cond:                                         ; preds = %for.inc, %entry
  %4 = load i32, ptr %bar, align 4
  %cmp = icmp slt i32 %4, 6
  br i1 %cmp, label %for.body, label %for.end

for.body:                                         ; preds = %for.cond
  %5 = load ptr, ptr %pdev, align 8
  %io_regions = getelementptr inbounds %struct.PCIDevice, ptr %5, i32 0, i32 11
  %6 = load i32, ptr %bar, align 4
  %idxprom = sext i32 %6 to i64
  %arrayidx = getelementptr [7 x %struct.PCIIORegion], ptr %io_regions, i64 0, i64 %idxprom
  %addr = getelementptr inbounds %struct.PCIIORegion, ptr %arrayidx, i32 0, i32 0
  %7 = load i64, ptr %addr, align 8
  %8 = load i32, ptr %bar, align 4
  %idxprom2 = sext i32 %8 to i64
  %arrayidx3 = getelementptr [6 x i64], ptr %old_addr, i64 0, i64 %idxprom2
  store i64 %7, ptr %arrayidx3, align 8
  br label %for.inc

for.inc:                                          ; preds = %for.body
  %9 = load i32, ptr %bar, align 4
  %inc = add i32 %9, 1
  store i32 %inc, ptr %bar, align 4
  br label %for.cond, !llvm.loop !34

for.end:                                          ; preds = %for.cond
  %10 = load ptr, ptr %f.addr, align 8
  %11 = load ptr, ptr %vdev, align 8
  %call = call i32 @vmstate_load_state(ptr noundef %10, ptr noundef @vmstate_vfio_pci_config, ptr noundef %11, i32 noundef 1)
  store i32 %call, ptr %ret, align 4
  %12 = load i32, ptr %ret, align 4
  %tobool = icmp ne i32 %12, 0
  br i1 %tobool, label %if.then, label %if.end

if.then:                                          ; preds = %for.end
  %13 = load i32, ptr %ret, align 4
  store i32 %13, ptr %retval, align 4
  br label %return

if.end:                                           ; preds = %for.end
  %14 = load ptr, ptr %pdev, align 8
  %15 = load ptr, ptr %pdev, align 8
  %config = getelementptr inbounds %struct.PCIDevice, ptr %15, i32 0, i32 3
  %16 = load ptr, ptr %config, align 8
  %add.ptr4 = getelementptr i8, ptr %16, i64 4
  %call5 = call zeroext i16 @pci_get_word(ptr noundef %add.ptr4)
  %conv = zext i16 %call5 to i32
  call void @vfio_pci_write_config(ptr noundef %14, i32 noundef 4, i32 noundef %conv, i32 noundef 2)
  store i32 0, ptr %bar, align 4
  br label %for.cond6

for.cond6:                                        ; preds = %for.inc33, %if.end
  %17 = load i32, ptr %bar, align 4
  %cmp7 = icmp slt i32 %17, 6
  br i1 %cmp7, label %for.body9, label %for.end35

for.body9:                                        ; preds = %for.cond6
  %18 = load i32, ptr %bar, align 4
  %idxprom10 = sext i32 %18 to i64
  %arrayidx11 = getelementptr [6 x i64], ptr %old_addr, i64 0, i64 %idxprom10
  %19 = load i64, ptr %arrayidx11, align 8
  %20 = load ptr, ptr %pdev, align 8
  %io_regions12 = getelementptr inbounds %struct.PCIDevice, ptr %20, i32 0, i32 11
  %21 = load i32, ptr %bar, align 4
  %idxprom13 = sext i32 %21 to i64
  %arrayidx14 = getelementptr [7 x %struct.PCIIORegion], ptr %io_regions12, i64 0, i64 %idxprom13
  %addr15 = getelementptr inbounds %struct.PCIIORegion, ptr %arrayidx14, i32 0, i32 0
  %22 = load i64, ptr %addr15, align 8
  %cmp16 = icmp ne i64 %19, %22
  br i1 %cmp16, label %land.lhs.true, label %if.end32

land.lhs.true:                                    ; preds = %for.body9
  %23 = load ptr, ptr %vdev, align 8
  %bars = getelementptr inbounds %struct.VFIOPCIDevice, ptr %23, i32 0, i32 14
  %24 = load i32, ptr %bar, align 4
  %idxprom18 = sext i32 %24 to i64
  %arrayidx19 = getelementptr [6 x %struct.VFIOBAR], ptr %bars, i64 0, i64 %idxprom18
  %region = getelementptr inbounds %struct.VFIOBAR, ptr %arrayidx19, i32 0, i32 0
  %size = getelementptr inbounds %struct.VFIORegion, ptr %region, i32 0, i32 3
  %25 = load i64, ptr %size, align 8
  %cmp20 = icmp ugt i64 %25, 0
  br i1 %cmp20, label %land.lhs.true22, label %if.end32

land.lhs.true22:                                  ; preds = %land.lhs.true
  %26 = load ptr, ptr %vdev, align 8
  %bars23 = getelementptr inbounds %struct.VFIOPCIDevice, ptr %26, i32 0, i32 14
  %27 = load i32, ptr %bar, align 4
  %idxprom24 = sext i32 %27 to i64
  %arrayidx25 = getelementptr [6 x %struct.VFIOBAR], ptr %bars23, i64 0, i64 %idxprom24
  %region26 = getelementptr inbounds %struct.VFIOBAR, ptr %arrayidx25, i32 0, i32 0
  %size27 = getelementptr inbounds %struct.VFIORegion, ptr %region26, i32 0, i32 3
  %28 = load i64, ptr %size27, align 8
  %call28 = call i64 @qemu_real_host_page_size()
  %cmp29 = icmp ult i64 %28, %call28
  br i1 %cmp29, label %if.then31, label %if.end32

if.then31:                                        ; preds = %land.lhs.true22
  %29 = load ptr, ptr %pdev, align 8
  %30 = load i32, ptr %bar, align 4
  call void @vfio_sub_page_bar_update_mapping(ptr noundef %29, i32 noundef %30)
  br label %if.end32

if.end32:                                         ; preds = %if.then31, %land.lhs.true22, %land.lhs.true, %for.body9
  br label %for.inc33

for.inc33:                                        ; preds = %if.end32
  %31 = load i32, ptr %bar, align 4
  %inc34 = add i32 %31, 1
  store i32 %inc34, ptr %bar, align 4
  br label %for.cond6, !llvm.loop !35

for.end35:                                        ; preds = %for.cond6
  %32 = load ptr, ptr %pdev, align 8
  %call36 = call zeroext i1 @msi_enabled(ptr noundef %32)
  br i1 %call36, label %if.then37, label %if.else

if.then37:                                        ; preds = %for.end35
  %33 = load ptr, ptr %vdev, align 8
  call void @vfio_msi_enable(ptr noundef %33)
  br label %if.end42

if.else:                                          ; preds = %for.end35
  %34 = load ptr, ptr %pdev, align 8
  %call38 = call i32 @msix_enabled(ptr noundef %34)
  %tobool39 = icmp ne i32 %call38, 0
  br i1 %tobool39, label %if.then40, label %if.end41

if.then40:                                        ; preds = %if.else
  %35 = load ptr, ptr %vdev, align 8
  call void @vfio_msix_enable(ptr noundef %35)
  br label %if.end41

if.end41:                                         ; preds = %if.then40, %if.else
  br label %if.end42

if.end42:                                         ; preds = %if.end41, %if.then37
  %36 = load i32, ptr %ret, align 4
  store i32 %36, ptr %retval, align 4
  br label %return

return:                                           ; preds = %if.end42, %if.then
  %37 = load i32, ptr %retval, align 4
  ret i32 %37
}