; Function Attrs: nounwind sspstrong uwtable
define internal i32 @vfio_pci_load_config(ptr noundef %vbasedev, ptr noundef %f) #0 {
entry:
  %old_addr = alloca [6 x i64], align 16
  %io_regions = getelementptr i8, ptr %vbasedev, i64 -2312
  br label %for.body

for.body:                                         ; preds = %entry, %for.body
  %indvars.iv = phi i64 [ 0, %entry ], [ %indvars.iv.next, %for.body ]
  %arrayidx = getelementptr [7 x %struct.PCIIORegion], ptr %io_regions, i64 0, i64 %indvars.iv
  %0 = load i64, ptr %arrayidx, align 8
  %arrayidx3 = getelementptr [6 x i64], ptr %old_addr, i64 0, i64 %indvars.iv
  store i64 %0, ptr %arrayidx3, align 8
  %indvars.iv.next = add nuw nsw i64 %indvars.iv, 1
  %exitcond.not = icmp eq i64 %indvars.iv.next, 6
  br i1 %exitcond.not, label %for.end, label %for.body, !llvm.loop !40

for.end:                                          ; preds = %for.body
  %add.ptr = getelementptr i8, ptr %vbasedev, i64 -2608
  %call = tail call i32 @vmstate_load_state(ptr noundef %f, ptr noundef nonnull @vmstate_vfio_pci_config, ptr noundef %add.ptr, i32 noundef 1) #23
  %tobool.not = icmp eq i32 %call, 0
  br i1 %tobool.not, label %if.end, label %return

if.end:                                           ; preds = %for.end
  %config = getelementptr i8, ptr %vbasedev, i64 -2440
  %1 = load ptr, ptr %config, align 8
  %add.ptr4 = getelementptr i8, ptr %1, i64 4
  %add.ptr4.val = load i16, ptr %add.ptr4, align 1
  %conv = zext i16 %add.ptr4.val to i32
  tail call void @vfio_pci_write_config(ptr noundef %add.ptr, i32 noundef 4, i32 noundef %conv, i32 noundef 2)
  %2 = getelementptr i8, ptr %vbasedev, i64 304
  br label %for.body9

for.body9:                                        ; preds = %if.end, %for.inc33
  %indvars.iv27 = phi i64 [ 0, %if.end ], [ %indvars.iv.next28, %for.inc33 ]
  %arrayidx11 = getelementptr [6 x i64], ptr %old_addr, i64 0, i64 %indvars.iv27
  %3 = load i64, ptr %arrayidx11, align 8
  %arrayidx14 = getelementptr [7 x %struct.PCIIORegion], ptr %io_regions, i64 0, i64 %indvars.iv27
  %4 = load i64, ptr %arrayidx14, align 8
  %cmp16.not = icmp eq i64 %3, %4
  br i1 %cmp16.not, label %for.inc33, label %land.lhs.true

land.lhs.true:                                    ; preds = %for.body9
  %size.idx = mul nuw nsw i64 %indvars.iv27, 88
  %size = getelementptr i8, ptr %2, i64 %size.idx
  %5 = load i64, ptr %size, align 8
  %cmp20.not = icmp eq i64 %5, 0
  br i1 %cmp20.not, label %for.inc33, label %land.lhs.true22

land.lhs.true22:                                  ; preds = %land.lhs.true
  %call.i = tail call i32 @getpagesize() #24
  %conv.i = sext i32 %call.i to i64
  %cmp29 = icmp ult i64 %5, %conv.i
  br i1 %cmp29, label %if.then31, label %for.inc33

if.then31:                                        ; preds = %land.lhs.true22
  %6 = trunc nuw nsw i64 %indvars.iv27 to i32
  tail call fastcc void @vfio_sub_page_bar_update_mapping(ptr noundef %add.ptr, i32 noundef %6)
  br label %for.inc33

for.inc33:                                        ; preds = %for.body9, %land.lhs.true, %land.lhs.true22, %if.then31
  %indvars.iv.next28 = add nuw nsw i64 %indvars.iv27, 1
  %exitcond30.not = icmp eq i64 %indvars.iv.next28, 6
  br i1 %exitcond30.not, label %for.end35, label %for.body9, !llvm.loop !41

for.end35:                                        ; preds = %for.inc33
  %call36 = tail call zeroext i1 @msi_enabled(ptr noundef %add.ptr) #23
  br i1 %call36, label %if.then37, label %if.else

if.then37:                                        ; preds = %for.end35
  tail call fastcc void @vfio_msi_enable(ptr noundef %add.ptr)
  br label %return

if.else:                                          ; preds = %for.end35
  %call38 = tail call i32 @msix_enabled(ptr noundef %add.ptr) #23
  %tobool39.not = icmp eq i32 %call38, 0
  br i1 %tobool39.not, label %return, label %if.then40

if.then40:                                        ; preds = %if.else
  tail call fastcc void @vfio_msix_enable(ptr noundef %add.ptr)
  br label %return

return:                                           ; preds = %if.then37, %if.then40, %if.else, %for.end
  ret i32 %call
}